Certificate:
    Data:
        Version: 3 (0x2)
        Serial Number:
            3b:14:ab:e0:02:53:f3:80:c3:1b:2d:9b:96:34:c2:0b
    Signature Algorithm: sha256WithRSAEncryption
        Issuer: CN=ChangeMe
        Validity
            Not Before: Nov 10 10:03:01 2024 GMT
            Not After : Feb 13 10:03:01 2027 GMT
        Subject: CN=client1
        Subject Public Key Info:
            Public Key Algorithm: rsaEncryption
                Public-Key: (2048 bit)
                Modulus:
                    00:a5:4e:08:da:3a:b6:8c:77:8e:f7:81:56:14:9a:
                    06:fd:d0:be:76:10:25:87:db:ba:86:c0:83:55:21:
                    d5:4e:06:d6:a0:43:c0:26:05:0d:5f:b1:ef:24:5a:
                    47:09:31:8a:78:64:82:27:42:b1:26:64:4f:f8:f3:
                    be:93:46:bf:02:6d:40:19:1f:87:c3:62:4a:99:45:
                    6f:7b:b2:31:e8:ce:3c:e1:9b:87:a5:90:c0:00:7d:
                    3e:3e:be:a7:b4:7a:4a:e5:8c:aa:91:96:39:79:68:
                    b3:b8:48:b4:a3:8a:12:ca:c8:12:3c:43:5e:16:16:
                    ea:46:95:40:f9:cb:6c:95:ad:0e:2a:2b:43:4e:70:
                    7d:fd:9f:e9:84:fd:4c:9c:33:82:13:07:4b:2b:94:
                    03:59:4b:83:c5:55:0b:15:09:08:b6:18:2d:e0:6d:
                    46:e3:e5:d3:06:b4:c8:f2:b4:ed:63:0f:24:29:fb:
                    fc:41:09:b6:fb:e2:bf:26:4e:ba:8a:c2:e9:30:5c:
                    ee:a5:a7:d7:f3:aa:e6:94:f4:27:84:b0:21:27:c4:
                    b0:90:d2:a2:8b:bc:4c:e0:61:07:70:7d:f2:e5:14:
                    8e:be:02:de:dd:18:84:f4:34:5d:27:f0:08:3c:2b:
                    d7:62:90:ff:ba:33:ae:7b:f9:7c:8e:c8:9b:5d:68:
                    dc:ed
                Exponent: 65537 (0x10001)
        X509v3 extensions:
            X509v3 Basic Constraints: 
                CA:FALSE
            X509v3 Subject Key Identifier: 
                B7:1A:89:46:04:A9:4B:34:2D:84:12:99:2B:F5:33:B8:96:9F:87:00
            X509v3 Authority Key Identifier: 
                keyid:A5:E8:25:68:89:9E:4B:19:F0:6E:55:14:20:35:AD:D8:75:A0:76:6A
                DirName:/CN=ChangeMe
                serial:F3:B7:04:E2:3B:CA:EE:80

            X509v3 Extended Key Usage: 
                TLS Web Client Authentication
            X509v3 Key Usage: 
                Digital Signature
    Signature Algorithm: sha256WithRSAEncryption
         08:41:84:92:bf:c3:cd:df:20:b4:a0:a8:ad:5a:af:06:9c:c8:
         7e:ca:17:06:93:8b:8a:cd:e3:93:45:45:3a:1f:90:9d:dc:69:
         f6:34:1f:de:ed:61:2c:1a:ad:18:33:88:cf:48:af:d3:8a:0e:
         0b:e3:b5:c5:5b:cc:56:aa:16:20:cc:a3:98:17:8e:f8:0c:41:
         98:4e:4a:61:42:92:f6:e0:cd:33:e4:e0:f9:b7:2a:0c:61:42:
         f7:df:08:38:cc:a3:24:a8:cb:51:be:d4:15:6a:e2:4d:d0:89:
         df:50:39:d6:0e:20:0f:d3:7b:11:49:78:9a:69:ec:34:fc:de:
         be:7d:00:94:1c:00:9b:d1:14:73:24:ee:66:90:07:d3:ce:3a:
         d8:af:35:06:a6:f5:89:b1:72:85:fe:5b:ec:28:bf:1e:57:b6:
         2c:3d:5e:cd:7f:52:5e:1b:78:b0:59:ab:34:aa:78:63:0a:f1:
         c8:24:49:46:fa:5a:2c:1f:3c:9c:11:8e:3b:96:ef:06:8f:5b:
         3e:10:a7:50:44:a2:75:f9:cd:11:bb:5b:49:c1:1b:02:ef:a7:
         c4:95:02:34:d5:19:38:18:45:53:8a:12:6d:e5:68:82:16:ec:
         ed:7f:c3:27:d3:07:00:85:aa:ea:84:61:3e:85:cb:35:1c:c7:
         31:ca:1e:57
-----BEGIN CERTIFICATE-----
MIIDRDCCAiygAwIBAgIQOxSr4AJT84DDGy2bljTCCzANBgkqhkiG9w0BAQsFADAT
MREwDwYDVQQDDAhDaGFuZ2VNZTAeFw0yNDExMTAxMDAzMDFaFw0yNzAyMTMxMDAz
MDFaMBIxEDAOBgNVBAMMB2NsaWVudDEwggEiMA0GCSqGSIb3DQEBAQUAA4IBDwAw
ggEKAoIBAQClTgjaOraMd473gVYUmgb90L52ECWH27qGwINVIdVOBtagQ8AmBQ1f
se8kWkcJMYp4ZIInQrEmZE/4876TRr8CbUAZH4fDYkqZRW97sjHozjzhm4elkMAA
fT4+vqe0ekrljKqRljl5aLO4SLSjihLKyBI8Q14WFupGlUD5y2yVrQ4qK0NOcH39
n+mE/UycM4ITB0srlANZS4PFVQsVCQi2GC3gbUbj5dMGtMjytO1jDyQp+/xBCbb7
4r8mTrqKwukwXO6lp9fzquaU9CeEsCEnxLCQ0qKLvEzgYQdwffLlFI6+At7dGIT0
NF0n8Ag8K9dikP+6M657+XyOyJtdaNztAgMBAAGjgZQwgZEwCQYDVR0TBAIwADAd
BgNVHQ4EFgQUtxqJRgSpSzQthBKZK/UzuJafhwAwQwYDVR0jBDwwOoAUpeglaIme
SxnwblUUIDWt2HWgdmqhF6QVMBMxETAPBgNVBAMMCENoYW5nZU1lggkA87cE4jvK
7oAwEwYDVR0lBAwwCgYIKwYBBQUHAwIwCwYDVR0PBAQDAgeAMA0GCSqGSIb3DQEB
CwUAA4IBAQAIQYSSv8PN3yC0oKitWq8GnMh+yhcGk4uKzeOTRUU6H5Cd3Gn2NB/e
7WEsGq0YM4jPSK/Tig4L47XFW8xWqhYgzKOYF474DEGYTkphQpL24M0z5OD5tyoM
YUL33wg4zKMkqMtRvtQVauJN0InfUDnWDiAP03sRSXiaaew0/N6+fQCUHACb0RRz
JO5mkAfTzjrYrzUGpvWJsXKF/lvsKL8eV7YsPV7Nf1JeG3iwWas0qnhjCvHIJElG
+losHzycEY47lu8Gj1s+EKdQRKJ1+c0Ru1tJwRsC76fElQI01Rk4GEVTihJt5WiC
Fuztf8Mn0wcAharqhGE+hcs1HMcxyh5X
-----END CERTIFICATE-----
